target datalayout = "e-m:e-p270:32:32-p271:32:32-p272:64:64-i64:64-i128:128-f80:128-n8:16:32:64-S128"
target triple = "x86_64-pc-linux-gnu"

%struct.QMetaObject = type { %"struct.QMetaObject::Data" }
%"struct.QMetaObject::Data" = type { %"struct.QMetaObject::SuperData", ptr, ptr, ptr, ptr, ptr, ptr }
%"struct.QMetaObject::SuperData" = type { ptr }
%class.WirelessTimeline = type { %class.QWidget, double, double, double, ptr, [64 x [3 x float]], i64, i64, i32, ptr, ptr, ptr, ptr }
%class.QWidget = type { %class.QObject, %class.QPaintDevice.base, ptr }
%class.QObject = type { ptr, %class.QScopedPointer }
%class.QScopedPointer = type { ptr }
%class.QPaintDevice.base = type <{ ptr, i16 }>
%class.QFlags.17 = type { i32 }
%"class.QMetaObject::Connection" = type { ptr }
%class.QBasicAtomicInteger = type { %"struct.std::atomic" }
%"struct.std::atomic" = type { %"struct.std::__atomic_base" }
%"struct.std::__atomic_base" = type { i32 }
%"class.QtPrivate::QSlotObjectBase" = type { %class.QAtomicInt, ptr }
%class.QAtomicInt = type { %class.QAtomicInteger }
%class.QAtomicInteger = type { %class.QBasicAtomicInteger }
%"class.QtPrivate::QSlotObject.140" = type { %"class.QtPrivate::QSlotObjectBase", { i64, i64 } }

@mainApp = external global ptr, align 8
@_ZTV16WirelessTimeline = external unnamed_addr constant { [54 x ptr], [10 x ptr] }, align 8
@_ZN15MainApplication16staticMetaObjectE = external global %struct.QMetaObject, align 8

; Function Attrs: mustprogress nounwind uwtable
define linkonce_odr void @_ZNSt13__atomic_baseIiEC2Ei(ptr noundef nonnull align 4 dereferenceable(4) %0, i32 noundef %1) unnamed_addr #1 comdat align 2 {
  %3 = alloca ptr, align 8
  %4 = alloca i32, align 4
  store ptr %0, ptr %3, align 8
  store i32 %1, ptr %4, align 4
  %5 = load ptr, ptr %3, align 8
  %6 = getelementptr inbounds %"struct.std::__atomic_base", ptr %5, i32 0, i32 0
  %7 = load i32, ptr %4, align 4
  store i32 %7, ptr %6, align 4
  ret void
}

; Function Attrs: mustprogress nounwind uwtable
define linkonce_odr void @_ZNSt6atomicIiEC2Ei(ptr noundef nonnull align 4 dereferenceable(4) %0, i32 noundef %1) unnamed_addr #1 comdat align 2 {
  %3 = alloca ptr, align 8
  %4 = alloca i32, align 4
  store ptr %0, ptr %3, align 8
  store i32 %1, ptr %4, align 4
  %5 = load ptr, ptr %3, align 8
  %6 = load i32, ptr %4, align 4
  call void @_ZNSt13__atomic_baseIiEC2Ei(ptr noundef nonnull align 4 dereferenceable(4) %5, i32 noundef %6) #13
  ret void
}

; Function Attrs: mustprogress nounwind uwtable
define linkonce_odr void @_ZN19QBasicAtomicIntegerIiEC2Ei(ptr noundef nonnull align 4 dereferenceable(4) %0, i32 noundef %1) unnamed_addr #1 comdat align 2 {
  %3 = alloca ptr, align 8
  %4 = alloca i32, align 4
  store ptr %0, ptr %3, align 8
  store i32 %1, ptr %4, align 4
  %5 = load ptr, ptr %3, align 8
  %6 = getelementptr inbounds %class.QBasicAtomicInteger, ptr %5, i32 0, i32 0
  %7 = load i32, ptr %4, align 4
  call void @_ZNSt6atomicIiEC2Ei(ptr noundef nonnull align 4 dereferenceable(4) %6, i32 noundef %7) #13
  ret void
}

; Function Attrs: mustprogress nounwind uwtable
define linkonce_odr void @_ZN14QAtomicIntegerIiEC2Ei(ptr noundef nonnull align 4 dereferenceable(4) %0, i32 noundef %1) unnamed_addr #1 comdat align 2 {
  %3 = alloca ptr, align 8
  %4 = alloca i32, align 4
  store ptr %0, ptr %3, align 8
  store i32 %1, ptr %4, align 4
  %5 = load ptr, ptr %3, align 8
  %6 = load i32, ptr %4, align 4
  call void @_ZN19QBasicAtomicIntegerIiEC2Ei(ptr noundef nonnull align 4 dereferenceable(4) %5, i32 noundef %6) #13
  ret void
}

; Function Attrs: mustprogress nounwind uwtable
define linkonce_odr void @_ZN10QAtomicIntC2Ei(ptr noundef nonnull align 4 dereferenceable(4) %0, i32 noundef %1) unnamed_addr #1 comdat align 2 {
  %3 = alloca ptr, align 8
  %4 = alloca i32, align 4
  store ptr %0, ptr %3, align 8
  store i32 %1, ptr %4, align 4
  %5 = load ptr, ptr %3, align 8
  %6 = load i32, ptr %4, align 4
  call void @_ZN14QAtomicIntegerIiEC2Ei(ptr noundef nonnull align 4 dereferenceable(4) %5, i32 noundef %6) #13
  ret void
}

; Function Attrs: mustprogress nounwind uwtable
define linkonce_odr void @_ZN9QtPrivate15QSlotObjectBaseC2EPFviPS0_P7QObjectPPvPbE(ptr noundef nonnull align 8 dereferenceable(16) %0, ptr noundef %1) unnamed_addr #1 comdat align 2 {
  %3 = alloca ptr, align 8
  %4 = alloca ptr, align 8
  store ptr %0, ptr %3, align 8
  store ptr %1, ptr %4, align 8
  %5 = load ptr, ptr %3, align 8
  %6 = getelementptr inbounds %"class.QtPrivate::QSlotObjectBase", ptr %5, i32 0, i32 0
  call void @_ZN10QAtomicIntC2Ei(ptr noundef nonnull align 4 dereferenceable(4) %6, i32 noundef 1) #13
  %7 = getelementptr inbounds %"class.QtPrivate::QSlotObjectBase", ptr %5, i32 0, i32 1
  %8 = load ptr, ptr %4, align 8
  store ptr %8, ptr %7, align 8
  ret void
}

; Function Attrs: mustprogress nounwind uwtable
define linkonce_odr void @_ZN9QtPrivate11QSlotObjectIM16WirelessTimelineFvvENS_4ListIJEEEvEC2ES3_(ptr noundef nonnull align 8 dereferenceable(32) %0, i64 %1, i64 %2) unnamed_addr #1 comdat align 2 {
  %4 = alloca { i64, i64 }, align 8
  %5 = alloca ptr, align 8
  %6 = alloca { i64, i64 }, align 8
  %7 = getelementptr inbounds { i64, i64 }, ptr %4, i32 0, i32 0
  store i64 %1, ptr %7, align 8
  %8 = getelementptr inbounds { i64, i64 }, ptr %4, i32 0, i32 1
  store i64 %2, ptr %8, align 8
  %9 = load { i64, i64 }, ptr %4, align 8
  store ptr %0, ptr %5, align 8
  store { i64, i64 } %9, ptr %6, align 8
  %10 = load ptr, ptr %5, align 8
  call void @_ZN9QtPrivate15QSlotObjectBaseC2EPFviPS0_P7QObjectPPvPbE(ptr noundef nonnull align 8 dereferenceable(16) %10, ptr noundef @_ZN9QtPrivate11QSlotObjectIM16WirelessTimelineFvvENS_4ListIJEEEvE4implEiPNS_15QSlotObjectBaseEP7QObjectPPvPb)
  %11 = getelementptr inbounds %"class.QtPrivate::QSlotObject.140", ptr %10, i32 0, i32 1
  %12 = load { i64, i64 }, ptr %6, align 8
  store { i64, i64 } %12, ptr %11, align 8
  ret void
}

; Function Attrs: mustprogress nounwind uwtable
define linkonce_odr noundef ptr @_ZN9QtPrivate15ConnectionTypesINS_4ListIJEEELb1EE5typesEv() #1 comdat align 2 {
  ret ptr null
}

; Function Attrs: mustprogress uwtable
define linkonce_odr void @_ZN7QObject7connectIM15MainApplicationFvvEM16WirelessTimelineFvvEEEN11QMetaObject10ConnectionEPKN9QtPrivate15FunctionPointerIT_E6ObjectESB_PKNSA_IT0_E6ObjectESG_N2Qt14ConnectionTypeE(ptr dead_on_unwind noalias writable sret(%"class.QMetaObject::Connection") align 8 %0, ptr noundef %1, i64 %2, i64 %3, ptr noundef %4, ptr noundef byval({ i64, i64 }) align 8 %5, i32 noundef %6) #0 comdat align 2 personality ptr @__gxx_personality_v0 {
  %8 = alloca ptr, align 8
  %9 = alloca { i64, i64 }, align 8
  %10 = alloca ptr, align 8
  %11 = alloca { i64, i64 }, align 8
  %12 = alloca ptr, align 8
  %13 = alloca { i64, i64 }, align 8
  %14 = alloca i32, align 4
  %15 = alloca ptr, align 8
  %16 = alloca { i64, i64 }, align 8
  %17 = alloca ptr, align 8
  %18 = alloca i32, align 4
  store ptr %0, ptr %8, align 8
  %19 = getelementptr inbounds { i64, i64 }, ptr %9, i32 0, i32 0
  store i64 %2, ptr %19, align 8
  %20 = getelementptr inbounds { i64, i64 }, ptr %9, i32 0, i32 1
  store i64 %3, ptr %20, align 8
  %21 = load { i64, i64 }, ptr %9, align 8
  %22 = load { i64, i64 }, ptr %5, align 8
  store ptr %1, ptr %10, align 8
  store { i64, i64 } %21, ptr %11, align 8
  store ptr %4, ptr %12, align 8
  store { i64, i64 } %22, ptr %13, align 8
  store i32 %6, ptr %14, align 4
  store ptr null, ptr %15, align 8
  %23 = load i32, ptr %14, align 4
  %24 = icmp eq i32 %23, 2
  br i1 %24, label %28, label %25

25:                                               ; preds = %7
  %26 = load i32, ptr %14, align 4
  %27 = icmp eq i32 %26, 3
  br i1 %27, label %28, label %30

28:                                               ; preds = %25, %7
  %29 = call noundef ptr @_ZN9QtPrivate15ConnectionTypesINS_4ListIJEEELb1EE5typesEv()
  store ptr %29, ptr %15, align 8
  br label %30

30:                                               ; preds = %28, %25
  %31 = load ptr, ptr %10, align 8
  %32 = load ptr, ptr %12, align 8
  %33 = call noalias noundef nonnull ptr @_Znwm(i64 noundef 32) #18
  %34 = load { i64, i64 }, ptr %13, align 8
  store { i64, i64 } %34, ptr %16, align 8
  %35 = getelementptr inbounds { i64, i64 }, ptr %16, i32 0, i32 0
  %36 = load i64, ptr %35, align 8
  %37 = getelementptr inbounds { i64, i64 }, ptr %16, i32 0, i32 1
  %38 = load i64, ptr %37, align 8
  invoke void @_ZN9QtPrivate11QSlotObjectIM16WirelessTimelineFvvENS_4ListIJEEEvEC2ES3_(ptr noundef nonnull align 8 dereferenceable(32) %33, i64 %36, i64 %38)
          to label %39 unwind label %42

39:                                               ; preds = %30
  %40 = load i32, ptr %14, align 4
  %41 = load ptr, ptr %15, align 8
  call void @_ZN7QObject11connectImplEPKS_PPvS1_S3_PN9QtPrivate15QSlotObjectBaseEN2Qt14ConnectionTypeEPKiPK11QMetaObject(ptr dead_on_unwind writable sret(%"class.QMetaObject::Connection") align 8 %0, ptr noundef %31, ptr noundef %11, ptr noundef %32, ptr noundef %13, ptr noundef %33, i32 noundef %40, ptr noundef %41, ptr noundef @_ZN15MainApplication16staticMetaObjectE)
  ret void

42:                                               ; preds = %30
  %43 = landingpad { ptr, i32 }
          cleanup
  %44 = extractvalue { ptr, i32 } %43, 0
  store ptr %44, ptr %17, align 8
  %45 = extractvalue { ptr, i32 } %43, 1
  store i32 %45, ptr %18, align 4
  call void @_ZdlPv(ptr noundef %33) #19
  br label %46

46:                                               ; preds = %42
  %47 = load ptr, ptr %17, align 8
  %48 = load i32, ptr %18, align 4
  %49 = insertvalue { ptr, i32 } poison, ptr %47, 0
  %50 = insertvalue { ptr, i32 } %49, i32 %48, 1
  resume { ptr, i32 } %50
}

; Function Attrs: mustprogress uwtable
define linkonce_odr void @_ZN7QWidget16setMouseTrackingEb(ptr noundef nonnull align 8 dereferenceable(40) %0, i1 noundef zeroext %1) #0 comdat align 2 {
  %3 = alloca ptr, align 8
  %4 = alloca i8, align 1
  store ptr %0, ptr %3, align 8
  %5 = zext i1 %1 to i8
  store i8 %5, ptr %4, align 1
  %6 = load ptr, ptr %3, align 8
  %7 = load i8, ptr %4, align 1
  %8 = trunc i8 %7 to i1
  call void @_ZN7QWidget12setAttributeEN2Qt15WidgetAttributeEb(ptr noundef nonnull align 8 dereferenceable(40) %6, i32 noundef 2, i1 noundef zeroext %8)
  ret void
}

; Function Attrs: mustprogress nounwind uwtable
define linkonce_odr void @_ZN6QFlagsIN2Qt10WindowTypeEEC2Ev(ptr noundef nonnull align 4 dereferenceable(4) %0) unnamed_addr #1 comdat align 2 {
  %2 = alloca ptr, align 8
  store ptr %0, ptr %2, align 8
  %3 = load ptr, ptr %2, align 8
  %4 = getelementptr inbounds %class.QFlags.17, ptr %3, i32 0, i32 0
  store i32 0, ptr %4, align 4
  ret void
}

; Function Attrs: mustprogress uwtable
define void @_ZN16WirelessTimelineC2EP7QWidget(ptr noundef nonnull align 8 dereferenceable(896) %0, ptr noundef %1) unnamed_addr #0 align 2 personality ptr @__gxx_personality_v0 {
  %3 = alloca ptr, align 8
  %4 = alloca ptr, align 8
  %5 = alloca %class.QFlags.17, align 4
  %6 = alloca ptr, align 8
  %7 = alloca i32, align 4
  %8 = alloca %"class.QMetaObject::Connection", align 8
  %9 = alloca { i64, i64 }, align 8
  %10 = alloca { i64, i64 }, align 8
  store ptr %0, ptr %3, align 8
  store ptr %1, ptr %4, align 8
  %11 = load ptr, ptr %3, align 8
  %12 = load ptr, ptr %4, align 8
  call void @_ZN6QFlagsIN2Qt10WindowTypeEEC2Ev(ptr noundef nonnull align 4 dereferenceable(4) %5) #13
  %13 = getelementptr inbounds %class.QFlags.17, ptr %5, i32 0, i32 0
  %14 = load i32, ptr %13, align 4
  call void @_ZN7QWidgetC2EPS_6QFlagsIN2Qt10WindowTypeEE(ptr noundef nonnull align 8 dereferenceable(40) %11, ptr noundef %12, i32 %14)
  store ptr getelementptr inbounds ({ [54 x ptr], [10 x ptr] }, ptr @_ZTV16WirelessTimeline, i32 0, i32 0, i32 2), ptr %11, align 8
  %15 = getelementptr inbounds i8, ptr %11, i64 16
  store ptr getelementptr inbounds ({ [54 x ptr], [10 x ptr] }, ptr @_ZTV16WirelessTimeline, i32 0, i32 1, i32 2), ptr %15, align 8
  invoke void @_ZN7QWidget9setHiddenEb(ptr noundef nonnull align 8 dereferenceable(40) %11, i1 noundef zeroext true)
          to label %16 unwind label %38

16:                                               ; preds = %2
  %17 = getelementptr inbounds %class.WirelessTimeline, ptr %11, i32 0, i32 1
  store double 1.000000e+00, ptr %17, align 8
  invoke void @_ZN7QWidget14setFixedHeightEi(ptr noundef nonnull align 8 dereferenceable(40) %11, i32 noundef 64)
          to label %18 unwind label %38

18:                                               ; preds = %16
  %19 = getelementptr inbounds %class.WirelessTimeline, ptr %11, i32 0, i32 8
  store i32 1, ptr %19, align 8
  invoke void @_ZN7QWidget16setMouseTrackingEb(ptr noundef nonnull align 8 dereferenceable(40) %11, i1 noundef zeroext true)
          to label %20 unwind label %38

20:                                               ; preds = %18
  %21 = getelementptr inbounds %class.WirelessTimeline, ptr %11, i32 0, i32 2
  store double 0.000000e+00, ptr %21, align 8
  %22 = getelementptr inbounds %class.WirelessTimeline, ptr %11, i32 0, i32 3
  store double 0.000000e+00, ptr %22, align 8
  %23 = getelementptr inbounds %class.WirelessTimeline, ptr %11, i32 0, i32 4
  store ptr null, ptr %23, align 8
  %24 = getelementptr inbounds %class.WirelessTimeline, ptr %11, i32 0, i32 6
  store i64 0, ptr %24, align 8
  %25 = getelementptr inbounds %class.WirelessTimeline, ptr %11, i32 0, i32 7
  store i64 0, ptr %25, align 8
  %26 = getelementptr inbounds %class.WirelessTimeline, ptr %11, i32 0, i32 9
  store ptr null, ptr %26, align 8
  %27 = getelementptr inbounds %class.WirelessTimeline, ptr %11, i32 0, i32 10
  store ptr null, ptr %27, align 8
  %28 = getelementptr inbounds %class.WirelessTimeline, ptr %11, i32 0, i32 11
  store ptr null, ptr %28, align 8
  %29 = invoke ptr @g_hash_table_new(ptr noundef @g_direct_hash, ptr noundef @g_direct_equal)
          to label %30 unwind label %38

30:                                               ; preds = %20
  %31 = getelementptr inbounds %class.WirelessTimeline, ptr %11, i32 0, i32 12
  store ptr %29, ptr %31, align 8
  %32 = load ptr, ptr @mainApp, align 8
  store { i64, i64 } { i64 ptrtoint (ptr @_ZN15MainApplication14appInitializedEv to i64), i64 0 }, ptr %9, align 8
  %33 = getelementptr inbounds { i64, i64 }, ptr %9, i32 0, i32 0
  %34 = load i64, ptr %33, align 8
  %35 = getelementptr inbounds { i64, i64 }, ptr %9, i32 0, i32 1
  %36 = load i64, ptr %35, align 8
  store { i64, i64 } { i64 ptrtoint (ptr @_ZN16WirelessTimeline14appInitializedEv to i64), i64 0 }, ptr %10, align 8
  invoke void @_ZN7QObject7connectIM15MainApplicationFvvEM16WirelessTimelineFvvEEEN11QMetaObject10ConnectionEPKN9QtPrivate15FunctionPointerIT_E6ObjectESB_PKNSA_IT0_E6ObjectESG_N2Qt14ConnectionTypeE(ptr dead_on_unwind writable sret(%"class.QMetaObject::Connection") align 8 %8, ptr noundef %32, i64 %34, i64 %36, ptr noundef %11, ptr noundef byval({ i64, i64 }) align 8 %10, i32 noundef 0)
          to label %37 unwind label %38

37:                                               ; preds = %30
  call void @_ZN11QMetaObject10ConnectionD1Ev(ptr noundef nonnull align 8 dereferenceable(8) %8) #13
  ret void

38:                                               ; preds = %30, %20, %18, %16, %2
  %39 = landingpad { ptr, i32 }
          cleanup
  %40 = extractvalue { ptr, i32 } %39, 0
  store ptr %40, ptr %6, align 8
  %41 = extractvalue { ptr, i32 } %39, 1
  store i32 %41, ptr %7, align 4
  call void @_ZN7QWidgetD2Ev(ptr noundef nonnull align 8 dereferenceable(40) %11) #13
  br label %42

42:                                               ; preds = %38
  %43 = load ptr, ptr %6, align 8
  %44 = load i32, ptr %7, align 4
  %45 = insertvalue { ptr, i32 } poison, ptr %43, 0
  %46 = insertvalue { ptr, i32 } %45, i32 %44, 1
  resume { ptr, i32 } %46
}