; Function Attrs: mustprogress uwtable
define void @_ZN16WirelessTimelineC2EP7QWidget(ptr noundef nonnull align 8 dereferenceable(896) %0, ptr noundef %1) unnamed_addr #0 align 2 personality ptr @__gxx_personality_v0 {
  %3 = alloca { i64, i64 }, align 8
  %4 = alloca { i64, i64 }, align 8
  %5 = alloca %"class.QMetaObject::Connection", align 8
  tail call void @_ZN7QWidgetC2EPS_6QFlagsIN2Qt10WindowTypeEE(ptr noundef nonnull align 8 dereferenceable(40) %0, ptr noundef %1, i32 0)
  store ptr getelementptr inbounds ({ [54 x ptr], [10 x ptr] }, ptr @_ZTV16WirelessTimeline, i64 0, i32 0, i64 2), ptr %0, align 8
  %6 = getelementptr inbounds i8, ptr %0, i64 16
  store ptr getelementptr inbounds ({ [54 x ptr], [10 x ptr] }, ptr @_ZTV16WirelessTimeline, i64 0, i32 1, i64 2), ptr %6, align 8
  invoke void @_ZN7QWidget9setHiddenEb(ptr noundef nonnull align 8 dereferenceable(40) %0, i1 noundef zeroext true)
          to label %7 unwind label %22

7:                                                ; preds = %2
  %8 = getelementptr inbounds i8, ptr %0, i64 40
  store double 1.000000e+00, ptr %8, align 8
  invoke void @_ZN7QWidget14setFixedHeightEi(ptr noundef nonnull align 8 dereferenceable(40) %0, i32 noundef 64)
          to label %9 unwind label %22

9:                                                ; preds = %7
  %10 = getelementptr inbounds i8, ptr %0, i64 856
  store i32 1, ptr %10, align 8
  invoke void @_ZN7QWidget12setAttributeEN2Qt15WidgetAttributeEb(ptr noundef nonnull align 8 dereferenceable(40) %0, i32 noundef 2, i1 noundef zeroext true)
          to label %_ZN7QWidget16setMouseTrackingEb.exit unwind label %22

_ZN7QWidget16setMouseTrackingEb.exit:             ; preds = %9
  %11 = getelementptr inbounds i8, ptr %0, i64 48
  %12 = getelementptr inbounds i8, ptr %0, i64 840
  %13 = getelementptr inbounds i8, ptr %0, i64 864
  tail call void @llvm.memset.p0.i64(ptr noundef nonnull align 8 dereferenceable(24) %11, i8 0, i64 24, i1 false)
  tail call void @llvm.memset.p0.i64(ptr noundef nonnull align 8 dereferenceable(16) %12, i8 0, i64 16, i1 false)
  tail call void @llvm.memset.p0.i64(ptr noundef nonnull align 8 dereferenceable(24) %13, i8 0, i64 24, i1 false)
  %14 = invoke ptr @g_hash_table_new(ptr noundef nonnull @g_direct_hash, ptr noundef nonnull @g_direct_equal)
          to label %15 unwind label %22

15:                                               ; preds = %_ZN7QWidget16setMouseTrackingEb.exit
  %16 = getelementptr inbounds i8, ptr %0, i64 888
  store ptr %14, ptr %16, align 8
  %17 = load ptr, ptr @mainApp, align 8
  call void @llvm.lifetime.start.p0(i64 16, ptr nonnull %3)
  call void @llvm.lifetime.start.p0(i64 16, ptr nonnull %4)
  store i64 ptrtoint (ptr @_ZN15MainApplication14appInitializedEv to i64), ptr %3, align 8, !noalias !10
  %.fca.1.gep12.i = getelementptr inbounds i8, ptr %3, i64 8
  store i64 0, ptr %.fca.1.gep12.i, align 8, !noalias !10
  store i64 ptrtoint (ptr @_ZN16WirelessTimeline14appInitializedEv to i64), ptr %4, align 8, !noalias !10
  %.fca.1.gep.i = getelementptr inbounds i8, ptr %4, i64 8
  store i64 0, ptr %.fca.1.gep.i, align 8, !noalias !10
  %18 = invoke noalias noundef nonnull dereferenceable(32) ptr @_Znwm(i64 noundef 32) #19
          to label %.noexc unwind label %22

.noexc:                                           ; preds = %15
  store i32 1, ptr %18, align 4, !noalias !10
  %19 = getelementptr inbounds i8, ptr %18, i64 8
  store ptr @_ZN9QtPrivate11QSlotObjectIM16WirelessTimelineFvvENS_4ListIJEEEvE4implEiPNS_15QSlotObjectBaseEP7QObjectPPvPb, ptr %19, align 8, !noalias !10
  %20 = getelementptr inbounds i8, ptr %18, i64 16
  store i64 ptrtoint (ptr @_ZN16WirelessTimeline14appInitializedEv to i64), ptr %20, align 8, !noalias !10
  %.repack7.i.i = getelementptr inbounds i8, ptr %18, i64 24
  store i64 0, ptr %.repack7.i.i, align 8, !noalias !10
  invoke void @_ZN7QObject11connectImplEPKS_PPvS1_S3_PN9QtPrivate15QSlotObjectBaseEN2Qt14ConnectionTypeEPKiPK11QMetaObject(ptr dead_on_unwind nonnull writable sret(%"class.QMetaObject::Connection") align 8 %5, ptr noundef %17, ptr noundef nonnull %3, ptr noundef nonnull %0, ptr noundef nonnull %4, ptr noundef nonnull %18, i32 noundef 0, ptr noundef null, ptr noundef nonnull @_ZN15MainApplication16staticMetaObjectE)
          to label %21 unwind label %22

21:                                               ; preds = %.noexc
  call void @llvm.lifetime.end.p0(i64 16, ptr nonnull %3)
  call void @llvm.lifetime.end.p0(i64 16, ptr nonnull %4)
  call void @_ZN11QMetaObject10ConnectionD1Ev(ptr noundef nonnull align 8 dereferenceable(8) %5) #18
  ret void

22:                                               ; preds = %.noexc, %15, %9, %_ZN7QWidget16setMouseTrackingEb.exit, %7, %2
  %23 = landingpad { ptr, i32 }
          cleanup
  call void @_ZN7QWidgetD2Ev(ptr noundef nonnull align 8 dereferenceable(40) %0) #18
  resume { ptr, i32 } %23
}